target datalayout = "e-m:e-p270:32:32-p271:32:32-p272:64:64-i64:64-i128:128-f80:128-n8:16:32:64-S128"
target triple = "x86_64-pc-linux-gnu"

%struct.addrinfo = type { i32, i32, i32, i32, i32, ptr, ptr, ptr }
%union.jvalue = type { i64 }

@.str.5 = private unnamed_addr constant [19 x i8] c"address is missing\00", align 1
@preferredAddressFamily = internal global i32 2, align 4
@socketFD = internal global i32 -1, align 4
@.str.13 = private unnamed_addr constant [24 x i8] c"unable to create socket\00", align 1
@.str.14 = private unnamed_addr constant [18 x i8] c"connect timed out\00", align 1
@.str.15 = private unnamed_addr constant [15 x i8] c"connect failed\00", align 1
@.str.16 = private unnamed_addr constant [29 x i8] c"setsockopt TCPNODELAY failed\00", align 1

; Function Attrs: nounwind uwtable
define internal i32 @setOptionsCommon(i32 noundef %0, i32 noundef %1) #0 {
  %3 = alloca i32, align 4
  %4 = alloca i32, align 4
  %5 = alloca i32, align 4
  %6 = alloca %union.jvalue, align 8
  %7 = alloca i32, align 4
  %8 = alloca i32, align 4
  store i32 %0, ptr %4, align 4
  store i32 %1, ptr %5, align 4
  %9 = load i32, ptr %4, align 4
  %10 = icmp eq i32 %9, 10
  br i1 %10, label %11, label %14

11:                                               ; preds = %2
  store i32 0, ptr %8, align 4
  %12 = load i32, ptr %5, align 4
  %13 = call i32 @setsockopt(i32 noundef %12, i32 noundef 41, i32 noundef 26, ptr noundef %8, i32 noundef 4) #6
  br label %14

14:                                               ; preds = %11, %2
  store i32 0, ptr %6, align 8
  %15 = load i32, ptr %5, align 4
  %16 = getelementptr inbounds %union.jvalue, ptr %6, i32 0, i32 0
  %17 = load i64, ptr %16, align 8
  %18 = call i32 @dbgsysSetSocketOption(i32 noundef %15, i32 noundef 1, i8 noundef zeroext 1, i64 %17)
  store i32 %18, ptr %7, align 4
  %19 = load i32, ptr %7, align 4
  %20 = icmp slt i32 %19, 0
  br i1 %20, label %21, label %22

21:                                               ; preds = %14
  call void @setLastError(i32 noundef 202, ptr noundef @.str.16)
  store i32 202, ptr %3, align 4
  br label %23

22:                                               ; preds = %14
  store i32 0, ptr %3, align 4
  br label %23

23:                                               ; preds = %22, %21
  %24 = load i32, ptr %3, align 4
  ret i32 %24
}

; Function Attrs: nounwind uwtable
define internal i32 @connectToAddr(ptr noundef %0, i64 noundef %1, ptr noundef %2) #0 {
  %4 = alloca i32, align 4
  %5 = alloca ptr, align 8
  %6 = alloca i64, align 8
  %7 = alloca ptr, align 8
  %8 = alloca i32, align 4
  store ptr %0, ptr %5, align 8
  store i64 %1, ptr %6, align 8
  store ptr %2, ptr %7, align 8
  %9 = load ptr, ptr %5, align 8
  %10 = getelementptr inbounds %struct.addrinfo, ptr %9, i32 0, i32 1
  %11 = load i32, ptr %10, align 4
  %12 = load ptr, ptr %5, align 8
  %13 = getelementptr inbounds %struct.addrinfo, ptr %12, i32 0, i32 2
  %14 = load i32, ptr %13, align 8
  %15 = load ptr, ptr %5, align 8
  %16 = getelementptr inbounds %struct.addrinfo, ptr %15, i32 0, i32 3
  %17 = load i32, ptr %16, align 4
  %18 = call i32 @dbgsysSocket(i32 noundef %11, i32 noundef %14, i32 noundef %17)
  %19 = load ptr, ptr %7, align 8
  store i32 %18, ptr %19, align 4
  %20 = load ptr, ptr %7, align 8
  %21 = load i32, ptr %20, align 4
  %22 = icmp slt i32 %21, 0
  br i1 %22, label %23, label %24

23:                                               ; preds = %3
  call void @setLastError(i32 noundef 202, ptr noundef @.str.13)
  store i32 202, ptr %4, align 4
  br label %71

24:                                               ; preds = %3
  %25 = load ptr, ptr %5, align 8
  %26 = getelementptr inbounds %struct.addrinfo, ptr %25, i32 0, i32 1
  %27 = load i32, ptr %26, align 4
  %28 = load i32, ptr @socketFD, align 4
  %29 = call i32 @setOptionsCommon(i32 noundef %27, i32 noundef %28)
  store i32 %29, ptr %8, align 4
  %30 = load i32, ptr %8, align 4
  %31 = icmp ne i32 %30, 0
  br i1 %31, label %32, label %34

32:                                               ; preds = %24
  %33 = load i32, ptr %8, align 4
  store i32 %33, ptr %4, align 4
  br label %71

34:                                               ; preds = %24
  %35 = load i64, ptr %6, align 8
  %36 = icmp sgt i64 %35, 0
  br i1 %36, label %37, label %40

37:                                               ; preds = %34
  %38 = load i32, ptr @socketFD, align 4
  %39 = call i32 @dbgsysConfigureBlocking(i32 noundef %38, i8 noundef zeroext 0)
  br label %40

40:                                               ; preds = %37, %34
  %41 = load i32, ptr @socketFD, align 4
  %42 = load ptr, ptr %5, align 8
  %43 = getelementptr inbounds %struct.addrinfo, ptr %42, i32 0, i32 5
  %44 = load ptr, ptr %43, align 8
  %45 = load ptr, ptr %5, align 8
  %46 = getelementptr inbounds %struct.addrinfo, ptr %45, i32 0, i32 4
  %47 = load i32, ptr %46, align 8
  %48 = call i32 @dbgsysConnect(i32 noundef %41, ptr noundef %44, i32 noundef %47)
  store i32 %48, ptr %8, align 4
  %49 = load i32, ptr %8, align 4
  %50 = icmp eq i32 %49, -150
  br i1 %50, label %51, label %65

51:                                               ; preds = %40
  %52 = load i64, ptr %6, align 8
  %53 = icmp sgt i64 %52, 0
  br i1 %53, label %54, label %65

54:                                               ; preds = %51
  %55 = load i32, ptr @socketFD, align 4
  %56 = load i64, ptr %6, align 8
  %57 = trunc i64 %56 to i32
  %58 = call i32 @dbgsysFinishConnect(i32 noundef %55, i32 noundef %57)
  store i32 %58, ptr %8, align 4
  %59 = load i32, ptr %8, align 4
  %60 = icmp eq i32 %59, -200
  br i1 %60, label %61, label %64

61:                                               ; preds = %54
  %62 = load i32, ptr @socketFD, align 4
  %63 = call i32 @dbgsysConfigureBlocking(i32 noundef %62, i8 noundef zeroext 1)
  call void @setLastError(i32 noundef 203, ptr noundef @.str.14)
  store i32 203, ptr %4, align 4
  br label %71

64:                                               ; preds = %54
  br label %65

65:                                               ; preds = %64, %51, %40
  %66 = load i32, ptr %8, align 4
  %67 = icmp ne i32 %66, 0
  br i1 %67, label %68, label %69

68:                                               ; preds = %65
  call void @setLastError(i32 noundef 202, ptr noundef @.str.15)
  store i32 202, ptr %4, align 4
  br label %71

69:                                               ; preds = %65
  %70 = load i32, ptr %8, align 4
  store i32 %70, ptr %4, align 4
  br label %71

71:                                               ; preds = %69, %68, %61, %32, %23
  %72 = load i32, ptr %4, align 4
  ret i32 %72
}

; Function Attrs: nounwind uwtable
define internal i32 @socketTransport_attach(ptr noundef %0, ptr noundef %1, i64 noundef %2, i64 noundef %3) #0 {
  %5 = alloca i32, align 4
  %6 = alloca ptr, align 8
  %7 = alloca ptr, align 8
  %8 = alloca i64, align 8
  %9 = alloca i64, align 8
  %10 = alloca i32, align 4
  %11 = alloca i32, align 4
  %12 = alloca ptr, align 8
  %13 = alloca ptr, align 8
  store ptr %0, ptr %6, align 8
  store ptr %1, ptr %7, align 8
  store i64 %2, ptr %8, align 8
  store i64 %3, ptr %9, align 8
  store ptr null, ptr %12, align 8
  %14 = load ptr, ptr %7, align 8
  %15 = icmp eq ptr %14, null
  br i1 %15, label %22, label %16

16:                                               ; preds = %4
  %17 = load ptr, ptr %7, align 8
  %18 = getelementptr inbounds i8, ptr %17, i64 0
  %19 = load i8, ptr %18, align 1
  %20 = sext i8 %19 to i32
  %21 = icmp eq i32 %20, 0
  br i1 %21, label %22, label %23

22:                                               ; preds = %16, %4
  call void @setLastError(i32 noundef 103, ptr noundef @.str.5)
  store i32 103, ptr %5, align 4
  br label %111

23:                                               ; preds = %16
  %24 = load ptr, ptr %7, align 8
  %25 = call i32 @parseAddress(ptr noundef %24, ptr noundef %12)
  store i32 %25, ptr %10, align 4
  %26 = load i32, ptr %10, align 4
  %27 = icmp ne i32 %26, 0
  br i1 %27, label %28, label %30

28:                                               ; preds = %23
  %29 = load i32, ptr %10, align 4
  store i32 %29, ptr %5, align 4
  br label %111

30:                                               ; preds = %23
  %31 = load i32, ptr @preferredAddressFamily, align 4
  %32 = icmp ne i32 %31, 0
  %33 = select i1 %32, i32 0, i32 1
  store i32 %33, ptr %11, align 4
  br label %34

34:                                               ; preds = %85, %30
  %35 = load i32, ptr %11, align 4
  %36 = icmp slt i32 %35, 2
  br i1 %36, label %37, label %40

37:                                               ; preds = %34
  %38 = load i32, ptr @socketFD, align 4
  %39 = icmp slt i32 %38, 0
  br label %40

40:                                               ; preds = %37, %34
  %41 = phi i1 [ false, %34 ], [ %39, %37 ]
  br i1 %41, label %42, label %88

42:                                               ; preds = %40
  %43 = load ptr, ptr %12, align 8
  store ptr %43, ptr %13, align 8
  br label %44

44:                                               ; preds = %80, %42
  %45 = load ptr, ptr %13, align 8
  %46 = icmp ne ptr %45, null
  br i1 %46, label %47, label %84

47:                                               ; preds = %44
  %48 = load i32, ptr %11, align 4
  %49 = icmp eq i32 %48, 0
  br i1 %49, label %50, label %56

50:                                               ; preds = %47
  %51 = load ptr, ptr %13, align 8
  %52 = getelementptr inbounds %struct.addrinfo, ptr %51, i32 0, i32 1
  %53 = load i32, ptr %52, align 4
  %54 = load i32, ptr @preferredAddressFamily, align 4
  %55 = icmp eq i32 %53, %54
  br i1 %55, label %65, label %56

56:                                               ; preds = %50, %47
  %57 = load i32, ptr %11, align 4
  %58 = icmp eq i32 %57, 1
  br i1 %58, label %59, label %79

59:                                               ; preds = %56
  %60 = load ptr, ptr %13, align 8
  %61 = getelementptr inbounds %struct.addrinfo, ptr %60, i32 0, i32 1
  %62 = load i32, ptr %61, align 4
  %63 = load i32, ptr @preferredAddressFamily, align 4
  %64 = icmp ne i32 %62, %63
  br i1 %64, label %65, label %79

65:                                               ; preds = %59, %50
  %66 = load ptr, ptr %13, align 8
  %67 = load i64, ptr %8, align 8
  %68 = call i32 @connectToAddr(ptr noundef %66, i64 noundef %67, ptr noundef @socketFD)
  store i32 %68, ptr %10, align 4
  %69 = load i32, ptr %10, align 4
  %70 = icmp eq i32 %69, 0
  br i1 %70, label %71, label %72

71:                                               ; preds = %65
  br label %84

72:                                               ; preds = %65
  %73 = load i32, ptr @socketFD, align 4
  %74 = icmp sge i32 %73, 0
  br i1 %74, label %75, label %78

75:                                               ; preds = %72
  %76 = load i32, ptr @socketFD, align 4
  %77 = call i32 @dbgsysSocketClose(i32 noundef %76)
  store i32 -1, ptr @socketFD, align 4
  br label %78

78:                                               ; preds = %75, %72
  br label %79

79:                                               ; preds = %78, %59, %56
  br label %80

80:                                               ; preds = %79
  %81 = load ptr, ptr %13, align 8
  %82 = getelementptr inbounds %struct.addrinfo, ptr %81, i32 0, i32 7
  %83 = load ptr, ptr %82, align 8
  store ptr %83, ptr %13, align 8
  br label %44, !llvm.loop !6

84:                                               ; preds = %71, %44
  br label %85

85:                                               ; preds = %84
  %86 = load i32, ptr %11, align 4
  %87 = add nsw i32 %86, 1
  store i32 %87, ptr %11, align 4
  br label %34, !llvm.loop !8

88:                                               ; preds = %40
  %89 = load ptr, ptr %12, align 8
  call void @freeaddrinfo(ptr noundef %89) #6
  %90 = load i32, ptr %10, align 4
  %91 = icmp ne i32 %90, 0
  br i1 %91, label %92, label %94

92:                                               ; preds = %88
  %93 = load i32, ptr %10, align 4
  store i32 %93, ptr %5, align 4
  br label %111

94:                                               ; preds = %88
  %95 = load i64, ptr %8, align 8
  %96 = icmp sgt i64 %95, 0
  br i1 %96, label %97, label %100

97:                                               ; preds = %94
  %98 = load i32, ptr @socketFD, align 4
  %99 = call i32 @dbgsysConfigureBlocking(i32 noundef %98, i8 noundef zeroext 1)
  br label %100

100:                                              ; preds = %97, %94
  %101 = load i32, ptr @socketFD, align 4
  %102 = load i64, ptr %9, align 8
  %103 = call i32 @handshake(i32 noundef %101, i64 noundef %102)
  store i32 %103, ptr %10, align 4
  %104 = load i32, ptr %10, align 4
  %105 = icmp ne i32 %104, 0
  br i1 %105, label %106, label %110

106:                                              ; preds = %100
  %107 = load i32, ptr @socketFD, align 4
  %108 = call i32 @dbgsysSocketClose(i32 noundef %107)
  store i32 -1, ptr @socketFD, align 4
  %109 = load i32, ptr %10, align 4
  store i32 %109, ptr %5, align 4
  br label %111

110:                                              ; preds = %100
  store i32 0, ptr %5, align 4
  br label %111

111:                                              ; preds = %110, %106, %92, %28, %22
  %112 = load i32, ptr %5, align 4
  ret i32 %112
}