; Function Attrs: nounwind uwtable
define internal i32 @socketTransport_attach(ptr nocapture readnone %0, ptr noundef %1, i64 noundef %2, i64 noundef %3) #0 {
  %5 = alloca i32, align 4
  %6 = alloca ptr, align 8
  store ptr null, ptr %6, align 8
  %7 = icmp eq ptr %1, null
  br i1 %7, label %11, label %8

8:                                                ; preds = %4
  %9 = load i8, ptr %1, align 1
  %10 = icmp eq i8 %9, 0
  br i1 %10, label %11, label %24

11:                                               ; preds = %8, %4
  %12 = load i32, ptr @tlsIndex, align 4
  %13 = tail call ptr @dbgsysTlsGet(i32 noundef %12) #13
  %.not.i = icmp eq ptr %13, null
  br i1 %.not.i, label %18, label %14

14:                                               ; preds = %11
  %15 = load ptr, ptr @callback, align 8
  %16 = getelementptr inbounds i8, ptr %15, i64 8
  %17 = load ptr, ptr %16, align 8
  tail call void %17(ptr noundef nonnull %13) #13
  br label %18

18:                                               ; preds = %14, %11
  %19 = load ptr, ptr @callback, align 8
  %20 = load ptr, ptr %19, align 8
  %21 = tail call ptr %20(i32 noundef 19) #13
  %.not21.i = icmp eq ptr %21, null
  br i1 %.not21.i, label %setLastError.exit, label %22

22:                                               ; preds = %18
  tail call void @llvm.memcpy.p0.p0.i64(ptr noundef nonnull align 1 dereferenceable(19) %21, ptr noundef nonnull readonly align 1 dereferenceable(19) @.str.5, i64 19, i1 false) #13
  br label %setLastError.exit

setLastError.exit:                                ; preds = %18, %22
  %23 = load i32, ptr @tlsIndex, align 4
  tail call void @dbgsysTlsPut(i32 noundef %23, ptr noundef %21) #13
  br label %113

24:                                               ; preds = %8
  %25 = call fastcc i32 @parseAddress(ptr noundef nonnull %1, ptr noundef nonnull %6)
  %.not = icmp eq i32 %25, 0
  br i1 %.not, label %26, label %113

26:                                               ; preds = %24
  %27 = load i32, ptr @socketFD, align 4
  %.fr50 = freeze i32 %27
  %28 = icmp slt i32 %.fr50, 0
  %.pre53 = load ptr, ptr %6, align 8
  br i1 %28, label %.preheader.lr.ph, label %._crit_edge.thread

.preheader.lr.ph:                                 ; preds = %26
  %29 = icmp sgt i64 %2, 0
  %30 = trunc i64 %2 to i32
  %31 = icmp eq ptr %.pre53, null
  br i1 %31, label %._crit_edge.thread, label %.preheader.preheader

.preheader.preheader:                             ; preds = %.preheader.lr.ph
  %32 = load i32, ptr @preferredAddressFamily, align 4
  %.not32 = icmp eq i32 %32, 0
  %33 = zext i1 %.not32 to i32
  br label %.preheader

.preheader:                                       ; preds = %.preheader.preheader, %connectToAddr.exit
  %.pre56 = phi i32 [ %.pre57, %connectToAddr.exit ], [ %.fr50, %.preheader.preheader ]
  %34 = phi i32 [ %98, %connectToAddr.exit ], [ %.fr50, %.preheader.preheader ]
  %.02249 = phi i32 [ 1, %connectToAddr.exit ], [ %33, %.preheader.preheader ]
  %.02348 = phi i32 [ %.3, %connectToAddr.exit ], [ 0, %.preheader.preheader ]
  %.041 = load ptr, ptr %6, align 8
  %.not3542 = icmp eq ptr %.041, null
  br i1 %.not3542, label %connectToAddr.exit, label %.lr.ph

.lr.ph:                                           ; preds = %.preheader
  %trunc = trunc nuw i32 %.02249 to i1
  br label %35

35:                                               ; preds = %.lr.ph, %96
  %.pre55 = phi i32 [ %.pre56, %.lr.ph ], [ %.pre54, %96 ]
  %.044 = phi ptr [ %.041, %.lr.ph ], [ %.0, %96 ]
  %.143 = phi i32 [ %.02348, %.lr.ph ], [ %.2, %96 ]
  %36 = getelementptr inbounds i8, ptr %.044, i64 4
  %37 = load i32, ptr %36, align 4
  %38 = load i32, ptr @preferredAddressFamily, align 4
  %.not36 = icmp eq i32 %37, %38
  br i1 %trunc, label %40, label %39

39:                                               ; preds = %35
  br i1 %.not36, label %41, label %96

40:                                               ; preds = %35
  br i1 %.not36, label %96, label %41

41:                                               ; preds = %40, %39
  %42 = getelementptr inbounds i8, ptr %.044, i64 8
  %43 = load i32, ptr %42, align 8
  %44 = getelementptr inbounds i8, ptr %.044, i64 12
  %45 = load i32, ptr %44, align 4
  %46 = call i32 @dbgsysSocket(i32 noundef %37, i32 noundef %43, i32 noundef %45) #13
  store i32 %46, ptr @socketFD, align 4
  %47 = icmp slt i32 %46, 0
  br i1 %47, label %48, label %49

48:                                               ; preds = %41
  call fastcc void @setLastError(i32 noundef 202, ptr noundef nonnull @.str.13)
  br label %91

49:                                               ; preds = %41
  %50 = getelementptr inbounds i8, ptr %.044, i64 4
  %51 = load i32, ptr %50, align 4
  call void @llvm.lifetime.start.p0(i64 4, ptr nonnull %5)
  %52 = icmp eq i32 %51, 10
  br i1 %52, label %53, label %55

53:                                               ; preds = %49
  store i32 0, ptr %5, align 4
  %54 = call i32 @setsockopt(i32 noundef %46, i32 noundef 41, i32 noundef 26, ptr noundef nonnull %5, i32 noundef 4) #13
  br label %55

55:                                               ; preds = %53, %49
  %56 = call i32 @dbgsysSetSocketOption(i32 noundef %46, i32 noundef 1, i8 noundef zeroext 1, i64 0) #13
  %57 = icmp slt i32 %56, 0
  br i1 %57, label %setOptionsCommon.exit.i, label %58

setOptionsCommon.exit.i:                          ; preds = %55
  call fastcc void @setLastError(i32 noundef 202, ptr noundef nonnull @.str.16)
  call void @llvm.lifetime.end.p0(i64 4, ptr nonnull %5)
  br label %91

58:                                               ; preds = %55
  call void @llvm.lifetime.end.p0(i64 4, ptr nonnull %5)
  br i1 %29, label %59, label %62

59:                                               ; preds = %58
  %60 = load i32, ptr @socketFD, align 4
  %61 = call i32 @dbgsysConfigureBlocking(i32 noundef %60, i8 noundef zeroext 0) #13
  br label %62

62:                                               ; preds = %59, %58
  %63 = load i32, ptr @socketFD, align 4
  %64 = getelementptr inbounds i8, ptr %.044, i64 24
  %65 = load ptr, ptr %64, align 8
  %66 = getelementptr inbounds i8, ptr %.044, i64 16
  %67 = load i32, ptr %66, align 8
  %68 = call i32 @dbgsysConnect(i32 noundef %63, ptr noundef %65, i32 noundef %67) #13
  %69 = icmp eq i32 %68, -150
  %or.cond.i = and i1 %29, %69
  br i1 %or.cond.i, label %70, label %89

70:                                               ; preds = %62
  %71 = load i32, ptr @socketFD, align 4
  %72 = call i32 @dbgsysFinishConnect(i32 noundef %71, i32 noundef %30) #13
  %73 = icmp eq i32 %72, -200
  br i1 %73, label %74, label %89

74:                                               ; preds = %70
  %75 = load i32, ptr @socketFD, align 4
  %76 = call i32 @dbgsysConfigureBlocking(i32 noundef %75, i8 noundef zeroext 1) #13
  %77 = load i32, ptr @tlsIndex, align 4
  %78 = call ptr @dbgsysTlsGet(i32 noundef %77) #13
  %.not.i.i = icmp eq ptr %78, null
  br i1 %.not.i.i, label %83, label %79

79:                                               ; preds = %74
  %80 = load ptr, ptr @callback, align 8
  %81 = getelementptr inbounds i8, ptr %80, i64 8
  %82 = load ptr, ptr %81, align 8
  call void %82(ptr noundef nonnull %78) #13
  br label %83

83:                                               ; preds = %79, %74
  %84 = load ptr, ptr @callback, align 8
  %85 = load ptr, ptr %84, align 8
  %86 = call ptr %85(i32 noundef 18) #13
  %.not21.i.i = icmp eq ptr %86, null
  br i1 %.not21.i.i, label %setLastError.exit.i, label %87

87:                                               ; preds = %83
  call void @llvm.memcpy.p0.p0.i64(ptr noundef nonnull align 1 dereferenceable(18) %86, ptr noundef nonnull readonly align 1 dereferenceable(18) @.str.14, i64 18, i1 false) #13
  br label %setLastError.exit.i

setLastError.exit.i:                              ; preds = %87, %83
  %88 = load i32, ptr @tlsIndex, align 4
  call void @dbgsysTlsPut(i32 noundef %88, ptr noundef %86) #13
  br label %91

89:                                               ; preds = %70, %62
  %.0.i37 = phi i32 [ %72, %70 ], [ %68, %62 ]
  %.not22.i = icmp eq i32 %.0.i37, 0
  br i1 %.not22.i, label %.connectToAddr.exit.loopexit_crit_edge, label %90

.connectToAddr.exit.loopexit_crit_edge:           ; preds = %89
  %.pre.pre = load i32, ptr @socketFD, align 4
  br label %connectToAddr.exit

90:                                               ; preds = %89
  call fastcc void @setLastError(i32 noundef 202, ptr noundef nonnull @.str.15)
  br label %91

91:                                               ; preds = %48, %setLastError.exit.i, %90, %setOptionsCommon.exit.i
  %.018.i.ph = phi i32 [ 202, %setOptionsCommon.exit.i ], [ 202, %90 ], [ 203, %setLastError.exit.i ], [ 202, %48 ]
  %92 = load i32, ptr @socketFD, align 4
  %93 = icmp sgt i32 %92, -1
  br i1 %93, label %94, label %96

94:                                               ; preds = %91
  %95 = call i32 @dbgsysSocketClose(i32 noundef %92) #13
  store i32 -1, ptr @socketFD, align 4
  br label %96

96:                                               ; preds = %39, %40, %94, %91
  %.pre54 = phi i32 [ -1, %94 ], [ %92, %91 ], [ %.pre55, %40 ], [ %.pre55, %39 ]
  %.2 = phi i32 [ %.018.i.ph, %94 ], [ %.018.i.ph, %91 ], [ %.143, %40 ], [ %.143, %39 ]
  %97 = getelementptr inbounds i8, ptr %.044, i64 40
  %.0 = load ptr, ptr %97, align 8
  %.not35 = icmp eq ptr %.0, null
  br i1 %.not35, label %connectToAddr.exit, label %35, !llvm.loop !6

connectToAddr.exit:                               ; preds = %96, %.connectToAddr.exit.loopexit_crit_edge, %.preheader
  %.pre57 = phi i32 [ %.pre56, %.preheader ], [ %.pre.pre, %.connectToAddr.exit.loopexit_crit_edge ], [ %.pre54, %96 ]
  %98 = phi i32 [ %34, %.preheader ], [ %.pre.pre, %.connectToAddr.exit.loopexit_crit_edge ], [ %.pre54, %96 ]
  %.3 = phi i32 [ %.02348, %.preheader ], [ 0, %.connectToAddr.exit.loopexit_crit_edge ], [ %.2, %96 ]
  %99 = icmp eq i32 %.02249, 0
  %100 = icmp slt i32 %98, 0
  %101 = select i1 %99, i1 %100, i1 false
  br i1 %101, label %.preheader, label %._crit_edge, !llvm.loop !8

._crit_edge.thread:                               ; preds = %26, %.preheader.lr.ph
  %.ph = phi ptr [ null, %.preheader.lr.ph ], [ %.pre53, %26 ]
  call void @freeaddrinfo(ptr noundef %.ph) #13
  br label %102

._crit_edge:                                      ; preds = %connectToAddr.exit
  %.pre52 = load ptr, ptr %6, align 8
  call void @freeaddrinfo(ptr noundef %.pre52) #13
  %.not33 = icmp eq i32 %.3, 0
  br i1 %.not33, label %102, label %113

102:                                              ; preds = %._crit_edge.thread, %._crit_edge
  %103 = icmp sgt i64 %2, 0
  br i1 %103, label %104, label %107

104:                                              ; preds = %102
  %105 = load i32, ptr @socketFD, align 4
  %106 = call i32 @dbgsysConfigureBlocking(i32 noundef %105, i8 noundef zeroext 1) #13
  br label %107

107:                                              ; preds = %104, %102
  %108 = load i32, ptr @socketFD, align 4
  %109 = call fastcc i32 @handshake(i32 noundef %108, i64 noundef %3)
  %.not34 = icmp eq i32 %109, 0
  br i1 %.not34, label %113, label %110

110:                                              ; preds = %107
  %111 = load i32, ptr @socketFD, align 4
  %112 = call i32 @dbgsysSocketClose(i32 noundef %111) #13
  store i32 -1, ptr @socketFD, align 4
  br label %113

113:                                              ; preds = %107, %._crit_edge, %24, %110, %setLastError.exit
  %.024 = phi i32 [ 103, %setLastError.exit ], [ %109, %110 ], [ %25, %24 ], [ %.3, %._crit_edge ], [ 0, %107 ]
  ret i32 %.024
}